; Function Attrs: nofree norecurse nosync nounwind memory(argmem: readwrite) uwtable
define dso_local range(i32 -1, 1) i32 @inx2bitstr(ptr noundef captures(none) %0, ptr noundef readonly captures(none) %1) local_unnamed_addr #2 {
  %3 = getelementptr inbounds nuw i8, ptr %0, i64 8
  %4 = load i64, ptr %3, align 8
  %5 = trunc i64 %4 to i32
  %6 = icmp sgt i32 %5, 0
  br i1 %6, label %7, label %bit_nclear.exit

7:                                                ; preds = %2
  %8 = add i64 %4, 4294967295
  %9 = and i64 %8, 4294967295
  %invariant.gep.i = getelementptr i8, ptr %0, i64 16
  br label %.lr.ph27.i

.lr.ph27.i:                                       ; preds = %7, %.critedge.i
  %.026.i = phi i64 [ %12, %.critedge.i ], [ %9, %7 ]
  %10 = add nuw nsw i64 %.026.i, 1
  %11 = and i64 %10, -9223372036854775801
  %.not34 = icmp eq i64 %11, 0
  br i1 %.not34, label %.critedge2.i, label %.critedge.i

.critedge.i:                                      ; preds = %.lr.ph27.i
  %12 = add nsw i64 %.026.i, -1
  %13 = and i64 %.026.i, 63
  %14 = shl nuw i64 1, %13
  %15 = xor i64 %14, -1
  %16 = ashr i64 %.026.i, 6
  %gep24.i = getelementptr i64, ptr %invariant.gep.i, i64 %16
  %17 = load i64, ptr %gep24.i, align 8
  %18 = and i64 %17, %15
  store i64 %18, ptr %gep24.i, align 8
  %.not18.not.i = icmp sgt i64 %.026.i, 0
  br i1 %.not18.not.i, label %.lr.ph27.i, label %bit_nclear.exit, !llvm.loop !11

.critedge2.i:                                     ; preds = %.lr.ph27.i
  %.not35 = icmp eq i64 %.026.i, 0
  br i1 %.not35, label %bit_nclear.exit, label %19

19:                                               ; preds = %.critedge2.i
  %20 = lshr exact i64 %10, 3
  tail call void @llvm.memset.p0.i64(ptr noundef nonnull align 1 dereferenceable(1) %invariant.gep.i, i8 0, i64 %20, i1 false)
  br label %bit_nclear.exit

bit_nclear.exit:                                  ; preds = %.critedge.i, %19, %.critedge2.i, %2
  %21 = load i32, ptr %1, align 4
  %.not37 = icmp eq i32 %21, -1
  br i1 %.not37, label %._crit_edge, label %.lr.ph

.lr.ph:                                           ; preds = %bit_nclear.exit
  %invariant.gep.i23 = getelementptr i8, ptr %0, i64 16
  br label %22

22:                                               ; preds = %.lr.ph, %bit_nset.exit
  %23 = phi i32 [ %21, %.lr.ph ], [ %58, %bit_nset.exit ]
  %.01638 = phi ptr [ %1, %.lr.ph ], [ %57, %bit_nset.exit ]
  %24 = icmp sgt i32 %23, -1
  %.not20 = icmp slt i32 %23, %5
  %or.cond = and i1 %24, %.not20
  br i1 %or.cond, label %25, label %._crit_edge

25:                                               ; preds = %22
  %26 = getelementptr inbounds nuw i8, ptr %.01638, i64 4
  %27 = load i32, ptr %26, align 4
  %28 = icmp sgt i32 %27, -1
  %.not21 = icmp slt i32 %27, %5
  %or.cond22 = and i1 %28, %.not21
  br i1 %or.cond22, label %29, label %._crit_edge

29:                                               ; preds = %25
  %30 = zext nneg i32 %23 to i64
  %31 = zext nneg i32 %27 to i64
  %.not20.i = icmp samesign ule i32 %23, %27
  %32 = and i64 %30, 7
  %33 = icmp ne i64 %32, 0
  %or.cond21.i = and i1 %33, %.not20.i
  br i1 %or.cond21.i, label %.lr.ph.i, label %.critedge.preheader.i

.critedge.preheader.i:                            ; preds = %.lr.ph.i, %29
  %.017.lcssa.i = phi i64 [ %30, %29 ], [ %34, %.lr.ph.i ]
  %.not1825.i24 = icmp sgt i64 %.017.lcssa.i, %31
  br i1 %.not1825.i24, label %.critedge2.i27, label %.lr.ph27.i25

.lr.ph.i:                                         ; preds = %29, %.lr.ph.i
  %.01722.i = phi i64 [ %34, %.lr.ph.i ], [ %30, %29 ]
  %34 = add nuw nsw i64 %.01722.i, 1
  %35 = and i64 %.01722.i, 63
  %36 = shl nuw i64 1, %35
  %37 = lshr i64 %.01722.i, 6
  %gep.i = getelementptr i64, ptr %invariant.gep.i23, i64 %37
  %38 = load i64, ptr %gep.i, align 8
  %39 = or i64 %36, %38
  store i64 %39, ptr %gep.i, align 8
  %.not.i = icmp samesign ult i64 %.01722.i, %31
  %40 = and i64 %34, 7
  %41 = icmp ne i64 %40, 0
  %or.cond.i = and i1 %.not.i, %41
  br i1 %or.cond.i, label %.lr.ph.i, label %.critedge.preheader.i, !llvm.loop !12

.lr.ph27.i25:                                     ; preds = %.critedge.preheader.i, %.critedge.i30
  %.026.i26 = phi i64 [ %45, %.critedge.i30 ], [ %31, %.critedge.preheader.i ]
  %42 = add nuw nsw i64 %.026.i26, 1
  %43 = and i64 %42, -9223372036854775801
  %44 = icmp sgt i64 %43, 0
  br i1 %44, label %.critedge.i30, label %.critedge2.i27

.critedge.i30:                                    ; preds = %.lr.ph27.i25
  %45 = add nsw i64 %.026.i26, -1
  %46 = and i64 %.026.i26, 63
  %47 = shl nuw i64 1, %46
  %48 = ashr i64 %.026.i26, 6
  %gep24.i31 = getelementptr i64, ptr %invariant.gep.i23, i64 %48
  %49 = load i64, ptr %gep24.i31, align 8
  %50 = or i64 %49, %47
  store i64 %50, ptr %gep24.i31, align 8
  %.not18.not.i32 = icmp sgt i64 %.026.i26, %.017.lcssa.i
  br i1 %.not18.not.i32, label %.lr.ph27.i25, label %.critedge2.i27, !llvm.loop !13

.critedge2.i27:                                   ; preds = %.critedge.i30, %.lr.ph27.i25, %.critedge.preheader.i
  %.0.lcssa.i28 = phi i64 [ %31, %.critedge.preheader.i ], [ %.026.i26, %.lr.ph27.i25 ], [ %45, %.critedge.i30 ]
  %51 = icmp sgt i64 %.0.lcssa.i28, %.017.lcssa.i
  br i1 %51, label %52, label %bit_nset.exit

52:                                               ; preds = %.critedge2.i27
  %53 = ashr i64 %.017.lcssa.i, 3
  %54 = getelementptr inbounds i8, ptr %invariant.gep.i23, i64 %53
  %reass.sub = sub i64 %.0.lcssa.i28, %.017.lcssa.i
  %55 = add i64 %reass.sub, 1
  %56 = sdiv i64 %55, 8
  tail call void @llvm.memset.p0.i64(ptr nonnull align 1 %54, i8 -1, i64 %56, i1 false)
  br label %bit_nset.exit

bit_nset.exit:                                    ; preds = %.critedge2.i27, %52
  %57 = getelementptr inbounds nuw i8, ptr %.01638, i64 8
  %58 = load i32, ptr %57, align 4
  %.not = icmp eq i32 %58, -1
  br i1 %.not, label %._crit_edge, label %22, !llvm.loop !51

._crit_edge:                                      ; preds = %bit_nset.exit, %25, %22, %bit_nclear.exit
  %.0 = phi i32 [ 0, %bit_nclear.exit ], [ -1, %22 ], [ -1, %25 ], [ 0, %bit_nset.exit ]
  ret i32 %.0
}